target datalayout = "e-m:e-p270:32:32-p271:32:32-p272:64:64-i64:64-i128:128-f80:128-n8:16:32:64-S128"
target triple = "x86_64-pc-linux-gnu"

%struct.topo_info_response_msg = type { i32, ptr, ptr }
%struct.topo_info = type { i16, i32, ptr, ptr, ptr }

; Function Attrs: nounwind uwtable
define dso_local void @slurm_free_topo_info_msg(ptr noundef %0) #0 {
  %2 = alloca ptr, align 8
  %3 = alloca i32, align 4
  store ptr %0, ptr %2, align 8
  call void @llvm.lifetime.start.p0(i64 4, ptr %3) #11
  %4 = load ptr, ptr %2, align 8
  %5 = icmp ne ptr %4, null
  br i1 %5, label %6, label %51

6:                                                ; preds = %1
  %7 = load ptr, ptr %2, align 8
  %8 = getelementptr inbounds nuw %struct.topo_info_response_msg, ptr %7, i32 0, i32 1
  %9 = load ptr, ptr %8, align 8
  %10 = icmp ne ptr %9, null
  br i1 %10, label %11, label %46

11:                                               ; preds = %6
  store i32 0, ptr %3, align 4
  br label %12

12:                                               ; preds = %40, %11
  %13 = load i32, ptr %3, align 4
  %14 = load ptr, ptr %2, align 8
  %15 = getelementptr inbounds nuw %struct.topo_info_response_msg, ptr %14, i32 0, i32 0
  %16 = load i32, ptr %15, align 8
  %17 = icmp ult i32 %13, %16
  br i1 %17, label %18, label %43

18:                                               ; preds = %12
  %19 = load ptr, ptr %2, align 8
  %20 = getelementptr inbounds nuw %struct.topo_info_response_msg, ptr %19, i32 0, i32 1
  %21 = load ptr, ptr %20, align 8
  %22 = load i32, ptr %3, align 4
  %23 = sext i32 %22 to i64
  %24 = getelementptr inbounds %struct.topo_info, ptr %21, i64 %23
  %25 = getelementptr inbounds nuw %struct.topo_info, ptr %24, i32 0, i32 2
  call void @slurm_xfree(ptr noundef %25)
  %26 = load ptr, ptr %2, align 8
  %27 = getelementptr inbounds nuw %struct.topo_info_response_msg, ptr %26, i32 0, i32 1
  %28 = load ptr, ptr %27, align 8
  %29 = load i32, ptr %3, align 4
  %30 = sext i32 %29 to i64
  %31 = getelementptr inbounds %struct.topo_info, ptr %28, i64 %30
  %32 = getelementptr inbounds nuw %struct.topo_info, ptr %31, i32 0, i32 3
  call void @slurm_xfree(ptr noundef %32)
  %33 = load ptr, ptr %2, align 8
  %34 = getelementptr inbounds nuw %struct.topo_info_response_msg, ptr %33, i32 0, i32 1
  %35 = load ptr, ptr %34, align 8
  %36 = load i32, ptr %3, align 4
  %37 = sext i32 %36 to i64
  %38 = getelementptr inbounds %struct.topo_info, ptr %35, i64 %37
  %39 = getelementptr inbounds nuw %struct.topo_info, ptr %38, i32 0, i32 4
  call void @slurm_xfree(ptr noundef %39)
  br label %40

40:                                               ; preds = %18
  %41 = load i32, ptr %3, align 4
  %42 = add nsw i32 %41, 1
  store i32 %42, ptr %3, align 4
  br label %12, !llvm.loop !59

43:                                               ; preds = %12
  %44 = load ptr, ptr %2, align 8
  %45 = getelementptr inbounds nuw %struct.topo_info_response_msg, ptr %44, i32 0, i32 1
  call void @slurm_xfree(ptr noundef %45)
  br label %46

46:                                               ; preds = %43, %6
  %47 = load ptr, ptr %2, align 8
  %48 = getelementptr inbounds nuw %struct.topo_info_response_msg, ptr %47, i32 0, i32 2
  %49 = load ptr, ptr %48, align 8
  %50 = call i32 @topology_g_topology_free(ptr noundef %49)
  call void @slurm_xfree(ptr noundef %2)
  br label %51

51:                                               ; preds = %46, %1
  call void @llvm.lifetime.end.p0(i64 4, ptr %3) #11
  ret void
}