; Function Attrs: nounwind uwtable
define dso_local void @slurm_free_topo_info_msg(ptr noundef %0) local_unnamed_addr #1 {
  %2 = alloca ptr, align 8
  store ptr %0, ptr %2, align 8
  %.not = icmp eq ptr %0, null
  br i1 %.not, label %20, label %3

3:                                                ; preds = %1
  %4 = getelementptr inbounds nuw i8, ptr %0, i64 8
  %5 = load ptr, ptr %4, align 8
  %.not6 = icmp eq ptr %5, null
  br i1 %.not6, label %16, label %.preheader

.preheader:                                       ; preds = %3
  %6 = load i32, ptr %0, align 8
  %.not8 = icmp eq i32 %6, 0
  br i1 %.not8, label %._crit_edge, label %.lr.ph

.lr.ph:                                           ; preds = %.preheader, %.lr.ph
  %indvars.iv = phi i64 [ %indvars.iv.next, %.lr.ph ], [ 0, %.preheader ]
  %7 = load ptr, ptr %4, align 8
  %8 = getelementptr inbounds nuw %struct.topo_info, ptr %7, i64 %indvars.iv, i32 2
  tail call void @slurm_xfree(ptr noundef nonnull %8) #24
  %9 = load ptr, ptr %4, align 8
  %10 = getelementptr inbounds nuw %struct.topo_info, ptr %9, i64 %indvars.iv, i32 3
  tail call void @slurm_xfree(ptr noundef nonnull %10) #24
  %11 = load ptr, ptr %4, align 8
  %12 = getelementptr inbounds nuw %struct.topo_info, ptr %11, i64 %indvars.iv, i32 4
  tail call void @slurm_xfree(ptr noundef nonnull %12) #24
  %indvars.iv.next = add nuw nsw i64 %indvars.iv, 1
  %13 = load i32, ptr %0, align 8
  %14 = zext i32 %13 to i64
  %15 = icmp samesign ult i64 %indvars.iv.next, %14
  br i1 %15, label %.lr.ph, label %._crit_edge, !llvm.loop !60

._crit_edge:                                      ; preds = %.lr.ph, %.preheader
  tail call void @slurm_xfree(ptr noundef nonnull %4) #24
  br label %16

16:                                               ; preds = %._crit_edge, %3
  %17 = getelementptr inbounds nuw i8, ptr %0, i64 16
  %18 = load ptr, ptr %17, align 8
  %19 = tail call i32 @topology_g_topology_free(ptr noundef %18) #24
  call void @slurm_xfree(ptr noundef nonnull %2) #24
  br label %20

20:                                               ; preds = %16, %1
  ret void
}